target datalayout = "e-m:e-p270:32:32-p271:32:32-p272:64:64-i64:64-i128:128-f80:128-n8:16:32:64-S128"
target triple = "x86_64-pc-linux-gnu"

%"class.folly::IPAddressV6" = type <{ %"union.folly::IPAddressV6::AddressStorage", i16, [2 x i8] }>
%"union.folly::IPAddressV6::AddressStorage" = type { %struct.in6_addr }
%struct.in6_addr = type { %union.anon }
%union.anon = type { [4 x i32] }
%"struct.std::array.42" = type { [2 x i8] }

; Function Attrs: mustprogress nounwind uwtable
define linkonce_odr noundef ptr @_ZNSt14__array_traitsIhLm2EE6_S_ptrERA2_Kh(ptr noundef nonnull align 1 dereferenceable(2) %0) #3 comdat align 2 {
  %2 = alloca ptr, align 8
  store ptr %0, ptr %2, align 8, !tbaa !28
  %3 = load ptr, ptr %2, align 8, !tbaa !28
  %4 = getelementptr inbounds [2 x i8], ptr %3, i64 0, i64 0
  ret ptr %4
}

; Function Attrs: mustprogress nounwind uwtable
define linkonce_odr noundef ptr @_ZNK5folly11IPAddressV65bytesEv(ptr noundef nonnull align 4 dereferenceable(18) %0) #3 comdat align 2 {
  %2 = alloca ptr, align 8
  store ptr %0, ptr %2, align 8, !tbaa !7
  %3 = load ptr, ptr %2, align 8
  %4 = getelementptr inbounds nuw %"class.folly::IPAddressV6", ptr %3, i32 0, i32 0
  %5 = getelementptr inbounds nuw %struct.in6_addr, ptr %4, i32 0, i32 0
  %6 = getelementptr inbounds [16 x i8], ptr %5, i64 0, i64 0
  ret ptr %6
}

; Function Attrs: mustprogress nounwind uwtable
define linkonce_odr noundef ptr @_ZNKSt5arrayIhLm2EE4dataEv(ptr noundef nonnull align 1 dereferenceable(2) %0) #3 comdat align 2 {
  %2 = alloca ptr, align 8
  store ptr %0, ptr %2, align 8, !tbaa !517
  %3 = load ptr, ptr %2, align 8
  %4 = getelementptr inbounds nuw %"struct.std::array.42", ptr %3, i32 0, i32 0
  %5 = call noundef ptr @_ZNSt14__array_traitsIhLm2EE6_S_ptrERA2_Kh(ptr noundef nonnull align 1 dereferenceable(2) %4) #13
  ret ptr %5
}

; Function Attrs: mustprogress uwtable
define noundef zeroext i1 @_ZNK5folly11IPAddressV614inBinarySubnetESt5arrayIhLm2EEm(ptr noundef nonnull align 4 dereferenceable(18) %0, i16 %1, i64 noundef %2) #0 align 2 {
  %4 = alloca %"struct.std::array.42", align 1
  %5 = alloca ptr, align 8
  %6 = alloca i64, align 8
  %7 = alloca %"class.folly::IPAddressV6", align 4
  %8 = getelementptr inbounds nuw %"struct.std::array.42", ptr %4, i32 0, i32 0
  store i16 %1, ptr %8, align 1
  store ptr %0, ptr %5, align 8, !tbaa !7
  store i64 %2, ptr %6, align 8, !tbaa !12
  %9 = load ptr, ptr %5, align 8
  call void @llvm.lifetime.start.p0(i64 20, ptr %7) #13
  %10 = load i64, ptr %6, align 8, !tbaa !12
  call void @_ZNK5folly11IPAddressV64maskEm(ptr dead_on_unwind writable sret(%"class.folly::IPAddressV6") align 4 %7, ptr noundef nonnull align 4 dereferenceable(18) %9, i64 noundef %10)
  %11 = call noundef ptr @_ZNKSt5arrayIhLm2EE4dataEv(ptr noundef nonnull align 1 dereferenceable(2) %4) #13
  %12 = call noundef ptr @_ZNK5folly11IPAddressV65bytesEv(ptr noundef nonnull align 4 dereferenceable(18) %7)
  %13 = call i32 @memcmp(ptr noundef %11, ptr noundef %12, i64 noundef 2) #33
  %14 = icmp eq i32 %13, 0
  call void @llvm.lifetime.end.p0(i64 20, ptr %7) #13
  ret i1 %14
}