; Function Attrs: mustprogress uwtable
define noundef zeroext i1 @_ZNK5folly11IPAddressV614inBinarySubnetESt5arrayIhLm2EEm(ptr noundef nonnull readonly align 4 captures(none) dereferenceable(18) %0, i16 %1, i64 noundef %2) local_unnamed_addr #0 align 2 {
  %4 = alloca %"class.folly::IPAddressV6", align 4
  call void @llvm.lifetime.start.p0(i64 20, ptr nonnull %4) #37
  call void @_ZNK5folly11IPAddressV64maskEm(ptr dead_on_unwind nonnull writable sret(%"class.folly::IPAddressV6") align 4 %4, ptr noundef nonnull align 4 dereferenceable(18) %0, i64 noundef %2)
  %rhsv = load i16, ptr %4, align 4
  %.not = icmp eq i16 %1, %rhsv
  call void @llvm.lifetime.end.p0(i64 20, ptr nonnull %4) #37
  ret i1 %.not
}